; Function Attrs: nounwind uwtable
define internal fastcc ptr @uriParseSegmentW(ptr noundef nonnull captures(none) %0, ptr noundef nonnull %1, ptr noundef nonnull %2, ptr noundef %3) unnamed_addr #0 {
  br label %tailrecurse

tailrecurse:                                      ; preds = %7, %4
  %.tr19 = phi ptr [ %1, %4 ], [ %8, %7 ]
  %.not = icmp ult ptr %.tr19, %2
  br i1 %.not, label %5, label %10

5:                                                ; preds = %tailrecurse
  %6 = load i32, ptr %.tr19, align 4, !tbaa !55
  switch i32 %6, label %10 [
    i32 33, label %7
    i32 36, label %7
    i32 37, label %7
    i32 38, label %7
    i32 40, label %7
    i32 41, label %7
    i32 45, label %7
    i32 42, label %7
    i32 44, label %7
    i32 46, label %7
    i32 58, label %7
    i32 59, label %7
    i32 64, label %7
    i32 39, label %7
    i32 95, label %7
    i32 126, label %7
    i32 43, label %7
    i32 61, label %7
    i32 48, label %7
    i32 49, label %7
    i32 50, label %7
    i32 51, label %7
    i32 52, label %7
    i32 53, label %7
    i32 54, label %7
    i32 55, label %7
    i32 56, label %7
    i32 57, label %7
    i32 65, label %7
    i32 66, label %7
    i32 67, label %7
    i32 68, label %7
    i32 69, label %7
    i32 70, label %7
    i32 97, label %7
    i32 98, label %7
    i32 99, label %7
    i32 100, label %7
    i32 101, label %7
    i32 102, label %7
    i32 103, label %7
    i32 71, label %7
    i32 104, label %7
    i32 72, label %7
    i32 105, label %7
    i32 73, label %7
    i32 106, label %7
    i32 74, label %7
    i32 107, label %7
    i32 75, label %7
    i32 108, label %7
    i32 76, label %7
    i32 109, label %7
    i32 77, label %7
    i32 110, label %7
    i32 78, label %7
    i32 111, label %7
    i32 79, label %7
    i32 112, label %7
    i32 80, label %7
    i32 113, label %7
    i32 81, label %7
    i32 114, label %7
    i32 82, label %7
    i32 115, label %7
    i32 83, label %7
    i32 116, label %7
    i32 84, label %7
    i32 117, label %7
    i32 85, label %7
    i32 118, label %7
    i32 86, label %7
    i32 119, label %7
    i32 87, label %7
    i32 120, label %7
    i32 88, label %7
    i32 121, label %7
    i32 89, label %7
    i32 122, label %7
    i32 90, label %7
  ]

7:                                                ; preds = %5, %5, %5, %5, %5, %5, %5, %5, %5, %5, %5, %5, %5, %5, %5, %5, %5, %5, %5, %5, %5, %5, %5, %5, %5, %5, %5, %5, %5, %5, %5, %5, %5, %5, %5, %5, %5, %5, %5, %5, %5, %5, %5, %5, %5, %5, %5, %5, %5, %5, %5, %5, %5, %5, %5, %5, %5, %5, %5, %5, %5, %5, %5, %5, %5, %5, %5, %5, %5, %5, %5, %5, %5, %5, %5, %5, %5, %5, %5, %5
  %8 = tail call fastcc ptr @uriParsePcharW(ptr noundef %0, ptr noundef %.tr19, ptr noundef %2, ptr noundef %3)
  %9 = icmp eq ptr %8, null
  br i1 %9, label %10, label %tailrecurse

10:                                               ; preds = %5, %7, %tailrecurse
  %.0 = phi ptr [ %2, %tailrecurse ], [ null, %7 ], [ %.tr19, %5 ]
  ret ptr %.0
}